; Function Attrs: nofree norecurse nosync nounwind memory(read, argmem: readwrite, inaccessiblemem: none) uwtable
define internal void @filter_row16(ptr noundef readonly captures(none) %0, ptr noundef writeonly captures(none) %1, ptr noundef readonly captures(none) %2, i32 noundef %3, i32 noundef %4, i32 noundef %5, i32 noundef %6, i32 noundef %7, ptr readnone captures(none) %8) #6 {
  %10 = icmp sgt i32 %3, 0
  br i1 %10, label %.lr.ph96, label %._crit_edge97

.lr.ph96:                                         ; preds = %9
  %.075 = add nuw nsw i32 %4, 1
  %11 = icmp sgt i32 %4, 0
  %12 = icmp slt i32 %.075, %5
  %13 = select i1 %11, i1 %12, i1 false
  br i1 %13, label %.lr.ph.us.preheader, label %.lr.ph96.split.preheader

.lr.ph96.split.preheader:                         ; preds = %.lr.ph96
  %wide.trip.count = zext nneg i32 %3 to i64
  br label %.lr.ph96.split

.lr.ph.us.preheader:                              ; preds = %.lr.ph96
  %14 = zext nneg i32 %4 to i64
  %15 = add nuw nsw i64 %14, 1
  %wide.trip.count110 = zext nneg i32 %3 to i64
  br label %.lr.ph.us

.lr.ph.us:                                        ; preds = %.lr.ph.us.preheader, %._crit_edge.us
  %indvars.iv107 = phi i64 [ 0, %.lr.ph.us.preheader ], [ %indvars.iv.next108, %._crit_edge.us ]
  %16 = getelementptr inbounds nuw i16, ptr %0, i64 %indvars.iv107
  %17 = load i16, ptr %16, align 2, !tbaa !86
  %18 = zext i16 %17 to i32
  br label %19

19:                                               ; preds = %.lr.ph.us, %43
  %indvars.iv102 = phi i64 [ %15, %.lr.ph.us ], [ %indvars.iv.next103, %43 ]
  %indvars.iv100 = phi i64 [ %14, %.lr.ph.us ], [ %indvars.iv.next101, %43 ]
  %.06081.us = phi i32 [ 0, %.lr.ph.us ], [ %31, %43 ]
  %.06279.us = phi i32 [ %18, %.lr.ph.us ], [ %44, %43 ]
  %.06478.us = phi i32 [ 0, %.lr.ph.us ], [ %27, %43 ]
  %.06577.us = phi i32 [ 0, %.lr.ph.us ], [ %40, %43 ]
  %indvars.iv.next101 = add nsw i64 %indvars.iv100, -1
  %20 = getelementptr inbounds nuw ptr, ptr %2, i64 %indvars.iv.next101
  %21 = load ptr, ptr %20, align 8, !tbaa !87
  %22 = getelementptr inbounds nuw i16, ptr %21, i64 %indvars.iv107
  %23 = load i16, ptr %22, align 2, !tbaa !86
  %24 = zext i16 %23 to i32
  %25 = sub nsw i32 %18, %24
  %26 = tail call i32 @llvm.abs.i32(i32 %25, i1 true)
  %27 = add i32 %26, %.06478.us
  %28 = icmp ugt i32 %26, %6
  %29 = icmp ugt i32 %27, %7
  %or.cond.us = select i1 %28, i1 true, i1 %29
  br i1 %or.cond.us, label %._crit_edge.us, label %30

30:                                               ; preds = %19
  %31 = add nuw nsw i32 %.06081.us, 1
  %32 = add i32 %.06279.us, %24
  %33 = getelementptr inbounds nuw ptr, ptr %2, i64 %indvars.iv102
  %34 = load ptr, ptr %33, align 8, !tbaa !87
  %35 = getelementptr inbounds nuw i16, ptr %34, i64 %indvars.iv107
  %36 = load i16, ptr %35, align 2, !tbaa !86
  %37 = zext i16 %36 to i32
  %38 = sub nsw i32 %18, %37
  %39 = tail call i32 @llvm.abs.i32(i32 %38, i1 true)
  %40 = add i32 %39, %.06577.us
  %41 = icmp ugt i32 %39, %6
  %42 = icmp ugt i32 %40, %7
  %or.cond74.us = select i1 %41, i1 true, i1 %42
  br i1 %or.cond74.us, label %._crit_edge.us, label %43

43:                                               ; preds = %30
  %44 = add i32 %32, %37
  %indvars.iv.next103 = add nuw nsw i64 %indvars.iv102, 1
  %45 = icmp sgt i64 %indvars.iv100, 1
  %46 = trunc nuw i64 %indvars.iv.next103 to i32
  %47 = icmp sgt i32 %5, %46
  %48 = select i1 %45, i1 %47, i1 false
  br i1 %48, label %19, label %._crit_edge.us, !llvm.loop !89

._crit_edge.us:                                   ; preds = %43, %19, %30
  %.060.lcssa.us = phi i32 [ %.06081.us, %30 ], [ %.06081.us, %19 ], [ %31, %43 ]
  %.163.us = phi i32 [ %32, %30 ], [ %.06279.us, %19 ], [ %44, %43 ]
  %.1.us = phi i32 [ %31, %30 ], [ %.06081.us, %19 ], [ %31, %43 ]
  %49 = add i32 %.060.lcssa.us, 1
  %50 = add i32 %49, %.1.us
  %51 = ashr i32 %50, 1
  %52 = add i32 %51, %.163.us
  %53 = udiv i32 %52, %50
  %54 = trunc i32 %53 to i16
  %55 = getelementptr inbounds nuw i16, ptr %1, i64 %indvars.iv107
  store i16 %54, ptr %55, align 2, !tbaa !86
  %indvars.iv.next108 = add nuw nsw i64 %indvars.iv107, 1
  %exitcond111.not = icmp eq i64 %indvars.iv.next108, %wide.trip.count110
  br i1 %exitcond111.not, label %._crit_edge97, label %.lr.ph.us, !llvm.loop !90

._crit_edge97:                                    ; preds = %.lr.ph96.split, %._crit_edge.us, %9
  ret void

.lr.ph96.split:                                   ; preds = %.lr.ph96.split.preheader, %.lr.ph96.split
  %indvars.iv = phi i64 [ 0, %.lr.ph96.split.preheader ], [ %indvars.iv.next, %.lr.ph96.split ]
  %56 = getelementptr inbounds nuw i16, ptr %0, i64 %indvars.iv
  %57 = load i16, ptr %56, align 2, !tbaa !86
  %58 = getelementptr inbounds nuw i16, ptr %1, i64 %indvars.iv
  store i16 %57, ptr %58, align 2, !tbaa !86
  %indvars.iv.next = add nuw nsw i64 %indvars.iv, 1
  %exitcond.not = icmp eq i64 %indvars.iv.next, %wide.trip.count
  br i1 %exitcond.not, label %._crit_edge97, label %.lr.ph96.split, !llvm.loop !90
}